target datalayout = "e-m:e-p270:32:32-p271:32:32-p272:64:64-i64:64-i128:128-f80:128-n8:16:32:64-S128"
target triple = "x86_64-pc-linux-gnu"

%struct.CBraState = type { i64, i64, i64, i32, i32, i32, i32, i32, [256 x i8], [16384 x i8] }

; Function Attrs: nounwind uwtable
define void @BraState_Init(ptr noundef %0) #0 {
  %2 = alloca ptr, align 8
  %3 = alloca ptr, align 8
  store ptr %0, ptr %2, align 8
  %4 = load ptr, ptr %2, align 8
  store ptr %4, ptr %3, align 8
  %5 = load ptr, ptr %3, align 8
  %6 = getelementptr inbounds %struct.CBraState, ptr %5, i32 0, i32 2
  store i64 0, ptr %6, align 8
  %7 = load ptr, ptr %3, align 8
  %8 = getelementptr inbounds %struct.CBraState, ptr %7, i32 0, i32 1
  store i64 0, ptr %8, align 8
  %9 = load ptr, ptr %3, align 8
  %10 = getelementptr inbounds %struct.CBraState, ptr %9, i32 0, i32 0
  store i64 0, ptr %10, align 8
  %11 = load ptr, ptr %3, align 8
  %12 = getelementptr inbounds %struct.CBraState, ptr %11, i32 0, i32 7
  store i32 0, ptr %12, align 8
  %13 = load ptr, ptr %3, align 8
  %14 = getelementptr inbounds %struct.CBraState, ptr %13, i32 0, i32 3
  %15 = load i32, ptr %14, align 8
  %16 = icmp eq i32 %15, 3
  br i1 %16, label %17, label %21

17:                                               ; preds = %1
  %18 = load ptr, ptr %3, align 8
  %19 = getelementptr inbounds %struct.CBraState, ptr %18, i32 0, i32 8
  %20 = getelementptr inbounds [256 x i8], ptr %19, i64 0, i64 0
  call void @Delta_Init(ptr noundef %20)
  br label %21

21:                                               ; preds = %17, %1
  ret void
}