; Function Attrs: nounwind uwtable
define void @BraState_Init(ptr noundef initializes((0, 24), (40, 44)) %0) #1 {
  %2 = getelementptr inbounds nuw i8, ptr %0, i64 40
  store i32 0, ptr %2, align 8
  %3 = getelementptr inbounds nuw i8, ptr %0, i64 24
  tail call void @llvm.memset.p0.i64(ptr noundef nonnull align 8 dereferenceable(24) %0, i8 0, i64 24, i1 false)
  %4 = load i32, ptr %3, align 8
  %5 = icmp eq i32 %4, 3
  br i1 %5, label %6, label %8

6:                                                ; preds = %1
  %7 = getelementptr inbounds nuw i8, ptr %0, i64 44
  tail call void @Delta_Init(ptr noundef nonnull %7) #10
  br label %8

8:                                                ; preds = %6, %1
  ret void
}